; Function Attrs: mustprogress uwtable
define void @_ZN10MainWindow12showInfoPaneEv(ptr nocapture noundef nonnull readonly align 8 dereferenceable(1376) %0) local_unnamed_addr #9 align 2 {
  %2 = getelementptr inbounds i8, ptr %0, i64 1368
  %3 = load ptr, ptr %2, align 8
  %.not.i = icmp eq ptr %3, null
  br i1 %.not.i, label %_ZNK10MainWindow3GLAEv.exit.thread, label %_ZNK10MainWindow3GLAEv.exit

_ZNK10MainWindow3GLAEv.exit:                      ; preds = %1
  %4 = getelementptr inbounds i8, ptr %3, i64 256
  %5 = load ptr, ptr %4, align 8
  %.not = icmp eq ptr %5, null
  br i1 %.not, label %_ZNK10MainWindow3GLAEv.exit.thread, label %_ZNK10MainWindow3GLAEv.exit7

_ZNK10MainWindow3GLAEv.exit7:                     ; preds = %_ZNK10MainWindow3GLAEv.exit
  %6 = getelementptr inbounds i8, ptr %5, i64 1352
  %7 = load i8, ptr %6, align 8
  %8 = and i8 %7, 1
  %9 = xor i8 %8, 1
  store i8 %9, ptr %6, align 8
  %10 = load ptr, ptr %2, align 8, !nonnull !61, !noundef !61
  %11 = getelementptr inbounds i8, ptr %10, i64 256
  %12 = load ptr, ptr %11, align 8
  tail call void @_ZN7QWidget6updateEv(ptr noundef nonnull align 8 dereferenceable(48) %12)
  br label %_ZNK10MainWindow3GLAEv.exit.thread

_ZNK10MainWindow3GLAEv.exit.thread:               ; preds = %1, %_ZNK10MainWindow3GLAEv.exit7, %_ZNK10MainWindow3GLAEv.exit
  ret void
}